; Function Attrs: mustprogress uwtable
define dso_local void @_ZN6Effect13write_var_setERKSt6vectorIPK8VariableSaIS3_EE(ptr noundef nonnull align 8 captures(none) dereferenceable(74) %0, ptr noundef nonnull readonly align 8 captures(none) dereferenceable(24) %1) local_unnamed_addr #5 align 2 {
  %3 = getelementptr inbounds nuw i8, ptr %1, i64 8
  %4 = load ptr, ptr %3, align 8, !tbaa !16
  %5 = load ptr, ptr %1, align 8, !tbaa !17
  %.not = icmp eq ptr %4, %5
  br i1 %.not, label %._crit_edge, label %.lr.ph

._crit_edge:                                      ; preds = %.lr.ph, %2
  ret void

.lr.ph:                                           ; preds = %2, %.lr.ph
  %6 = phi ptr [ %11, %.lr.ph ], [ %5, %2 ]
  %.05 = phi i64 [ %9, %.lr.ph ], [ 0, %2 ]
  %7 = getelementptr inbounds nuw ptr, ptr %6, i64 %.05
  %8 = load ptr, ptr %7, align 8, !tbaa !23
  tail call void @_ZN6Effect9write_varEPK8Variable(ptr noundef nonnull align 8 dereferenceable(74) %0, ptr noundef %8)
  %9 = add nuw i64 %.05, 1
  %10 = load ptr, ptr %3, align 8, !tbaa !16
  %11 = load ptr, ptr %1, align 8, !tbaa !17
  %12 = ptrtoint ptr %10 to i64
  %13 = ptrtoint ptr %11 to i64
  %14 = sub i64 %12, %13
  %15 = ashr exact i64 %14, 3
  %16 = icmp ult i64 %9, %15
  br i1 %16, label %.lr.ph, label %._crit_edge, !llvm.loop !74
}